target datalayout = "e-m:e-p270:32:32-p271:32:32-p272:64:64-i64:64-i128:128-f80:128-n8:16:32:64-S128"
target triple = "x86_64-pc-linux-gnu"

%struct.Curl_ssl = type { %struct.curl_ssl_backend, i32, i64, ptr, ptr, ptr, ptr, ptr, ptr, ptr, ptr, ptr, ptr, ptr, ptr, ptr, ptr, ptr, ptr, ptr, ptr, ptr, ptr, ptr, ptr, ptr, ptr, ptr }
%struct.curl_ssl_backend = type { i32, ptr }
%struct.alpn_spec = type { [3 x [10 x i8]], i64 }
%struct.Curl_llist_element = type { ptr, ptr, ptr }
%struct.curltime = type { i64, i32 }
%struct.ssl_primary_config = type { ptr, ptr, ptr, ptr, ptr, ptr, ptr, ptr, ptr, ptr, ptr, ptr, i8, i32, i8, i8 }
%struct.dynbuf = type { ptr, i64, i64, i64 }
%struct.Curl_llist = type { ptr, ptr, ptr, i64 }
%struct.connectdata = type { %struct.Curl_llist_element, ptr, ptr, i64, ptr, ptr, %struct.hostname, ptr, ptr, %struct.hostname, %struct.proxy_info, %struct.proxy_info, [46 x i8], ptr, ptr, ptr, ptr, ptr, %struct.curltime, %struct.curltime, %struct.curltime, [2 x i32], [2 x ptr], [2 x ptr], [2 x ptr], %struct.ssl_primary_config, %struct.ssl_primary_config, %struct.ConnectBits, ptr, ptr, %struct.curltime, i32, i32, %struct.Curl_llist, ptr, ptr, i32, i32, %struct.ntlmdata, %struct.ntlmdata, %union.anon.1, ptr, ptr, i16, i32, i32, i32, i32, i32, i16, i16, i8, i8, i8, i8, i8, i8, i8 }
%struct.hostname = type { ptr, ptr, ptr, ptr }
%struct.proxy_info = type { %struct.hostname, i32, i8, ptr, ptr }
%struct.ConnectBits = type { i32 }
%struct.ntlmdata = type { i32, [8 x i8], i32, ptr }
%union.anon.1 = type { %struct.ftp_conn }
%struct.ftp_conn = type { %struct.pingpong, ptr, ptr, ptr, ptr, ptr, ptr, ptr, i8, i64, ptr, i64, i32, i32, i32, i32, i32, i16, i8, i8, i8, i8, i8 }
%struct.pingpong = type { i64, i8, ptr, i64, i64, %struct.curltime, i64, %struct.dynbuf, %struct.dynbuf, i64, i64, ptr, ptr }
%struct.Curl_cfilter = type { ptr, ptr, ptr, ptr, i32, i8 }
%struct.ssl_connect_data = type { i32, i32, %struct.ssl_peer, ptr, ptr, %struct.cf_call_data, %struct.curltime, i32, i8 }
%struct.ssl_peer = type { ptr, ptr, ptr, i8 }
%struct.cf_call_data = type { ptr }

@Curl_ssl = dso_local global ptr @Curl_ssl_openssl, align 8
@Curl_cfree = external global ptr, align 8
@Curl_ccalloc = external global ptr, align 8
@ALPN_SPEC_H2_H11 = internal constant %struct.alpn_spec { [3 x [10 x i8]] [[10 x i8] c"h2\00\00\00\00\00\00\00\00", [10 x i8] c"http/1.1\00\00", [10 x i8] zeroinitializer], i64 2 }, align 8
@ALPN_SPEC_H11 = internal constant %struct.alpn_spec { [3 x [10 x i8]] [[10 x i8] c"http/1.1\00\00", [10 x i8] zeroinitializer, [10 x i8] zeroinitializer], i64 1 }, align 8

; Function Attrs: nounwind uwtable
define internal void @cf_ctx_free(ptr noundef %0) #0 {
  %2 = alloca ptr, align 8
  store ptr %0, ptr %2, align 8
  %3 = load ptr, ptr %2, align 8
  %4 = icmp ne ptr %3, null
  br i1 %4, label %5, label %12

5:                                                ; preds = %1
  %6 = load ptr, ptr @Curl_cfree, align 8
  %7 = load ptr, ptr %2, align 8
  %8 = getelementptr inbounds %struct.ssl_connect_data, ptr %7, i32 0, i32 4
  %9 = load ptr, ptr %8, align 8
  call void %6(ptr noundef %9)
  %10 = load ptr, ptr @Curl_cfree, align 8
  %11 = load ptr, ptr %2, align 8
  call void %10(ptr noundef %11)
  br label %12

12:                                               ; preds = %5, %1
  ret void
}

; Function Attrs: nounwind uwtable
define internal ptr @cf_ctx_new(ptr noundef %0, ptr noundef %1) #0 {
  %3 = alloca ptr, align 8
  %4 = alloca ptr, align 8
  %5 = alloca ptr, align 8
  %6 = alloca ptr, align 8
  store ptr %0, ptr %4, align 8
  store ptr %1, ptr %5, align 8
  %7 = load ptr, ptr @Curl_ccalloc, align 8
  %8 = call ptr %7(i64 noundef 1, i64 noundef 88)
  store ptr %8, ptr %6, align 8
  %9 = load ptr, ptr %6, align 8
  %10 = icmp ne ptr %9, null
  br i1 %10, label %12, label %11

11:                                               ; preds = %2
  store ptr null, ptr %3, align 8
  br label %32

12:                                               ; preds = %2
  %13 = load ptr, ptr %5, align 8
  %14 = load ptr, ptr %6, align 8
  %15 = getelementptr inbounds %struct.ssl_connect_data, ptr %14, i32 0, i32 3
  store ptr %13, ptr %15, align 8
  %16 = load ptr, ptr @Curl_ccalloc, align 8
  %17 = load ptr, ptr @Curl_ssl, align 8
  %18 = getelementptr inbounds %struct.Curl_ssl, ptr %17, i32 0, i32 2
  %19 = load i64, ptr %18, align 8
  %20 = call ptr %16(i64 noundef 1, i64 noundef %19)
  %21 = load ptr, ptr %6, align 8
  %22 = getelementptr inbounds %struct.ssl_connect_data, ptr %21, i32 0, i32 4
  store ptr %20, ptr %22, align 8
  %23 = load ptr, ptr %6, align 8
  %24 = getelementptr inbounds %struct.ssl_connect_data, ptr %23, i32 0, i32 4
  %25 = load ptr, ptr %24, align 8
  %26 = icmp ne ptr %25, null
  br i1 %26, label %30, label %27

27:                                               ; preds = %12
  %28 = load ptr, ptr @Curl_cfree, align 8
  %29 = load ptr, ptr %6, align 8
  call void %28(ptr noundef %29)
  store ptr null, ptr %3, align 8
  br label %32

30:                                               ; preds = %12
  %31 = load ptr, ptr %6, align 8
  store ptr %31, ptr %3, align 8
  br label %32

32:                                               ; preds = %30, %27, %11
  %33 = load ptr, ptr %3, align 8
  ret ptr %33
}

; Function Attrs: nounwind uwtable
define internal ptr @alpn_get_spec(i32 noundef %0, i1 noundef zeroext %1) #0 {
  %3 = alloca ptr, align 8
  %4 = alloca i32, align 4
  %5 = alloca i8, align 1
  store i32 %0, ptr %4, align 4
  %6 = zext i1 %1 to i8
  store i8 %6, ptr %5, align 1
  %7 = load i8, ptr %5, align 1
  %8 = trunc i8 %7 to i1
  br i1 %8, label %10, label %9

9:                                                ; preds = %2
  store ptr null, ptr %3, align 8
  br label %15

10:                                               ; preds = %2
  %11 = load i32, ptr %4, align 4
  %12 = icmp sge i32 %11, 3
  br i1 %12, label %13, label %14

13:                                               ; preds = %10
  store ptr @ALPN_SPEC_H2_H11, ptr %3, align 8
  br label %15

14:                                               ; preds = %10
  store ptr @ALPN_SPEC_H11, ptr %3, align 8
  br label %15

15:                                               ; preds = %14, %13, %9
  %16 = load ptr, ptr %3, align 8
  ret ptr %16
}

; Function Attrs: nounwind uwtable
define internal i32 @cf_ssl_proxy_create(ptr noundef %0, ptr noundef %1, ptr noundef %2) #0 {
  %4 = alloca ptr, align 8
  %5 = alloca ptr, align 8
  %6 = alloca ptr, align 8
  %7 = alloca ptr, align 8
  %8 = alloca ptr, align 8
  %9 = alloca i32, align 4
  %10 = alloca i8, align 1
  %11 = alloca i32, align 4
  store ptr %0, ptr %4, align 8
  store ptr %1, ptr %5, align 8
  store ptr %2, ptr %6, align 8
  store ptr null, ptr %7, align 8
  %12 = load ptr, ptr %6, align 8
  %13 = getelementptr inbounds %struct.connectdata, ptr %12, i32 0, i32 27
  %14 = load i32, ptr %13, align 8
  %15 = lshr i32 %14, 25
  %16 = and i32 %15, 1
  %17 = icmp ne i32 %16, 0
  %18 = zext i1 %17 to i8
  store i8 %18, ptr %10, align 1
  store i32 2, ptr %11, align 4
  %19 = load ptr, ptr %6, align 8
  %20 = getelementptr inbounds %struct.connectdata, ptr %19, i32 0, i32 11
  %21 = getelementptr inbounds %struct.proxy_info, ptr %20, i32 0, i32 2
  %22 = load i8, ptr %21, align 4
  %23 = zext i8 %22 to i32
  %24 = icmp eq i32 %23, 3
  br i1 %24, label %25, label %26

25:                                               ; preds = %3
  store i8 1, ptr %10, align 1
  store i32 3, ptr %11, align 4
  br label %26

26:                                               ; preds = %25, %3
  %27 = load ptr, ptr %5, align 8
  %28 = load i32, ptr %11, align 4
  %29 = load i8, ptr %10, align 1
  %30 = trunc i8 %29 to i1
  %31 = call ptr @alpn_get_spec(i32 noundef %28, i1 noundef zeroext %30)
  %32 = call ptr @cf_ctx_new(ptr noundef %27, ptr noundef %31)
  store ptr %32, ptr %8, align 8
  %33 = load ptr, ptr %8, align 8
  %34 = icmp ne ptr %33, null
  br i1 %34, label %36, label %35

35:                                               ; preds = %26
  store i32 27, ptr %9, align 4
  br label %39

36:                                               ; preds = %26
  %37 = load ptr, ptr %8, align 8
  %38 = call i32 @Curl_cf_create(ptr noundef %7, ptr noundef @Curl_cft_ssl_proxy, ptr noundef %37)
  store i32 %38, ptr %9, align 4
  br label %39

39:                                               ; preds = %36, %35
  %40 = load i32, ptr %9, align 4
  %41 = icmp ne i32 %40, 0
  br i1 %41, label %42, label %44

42:                                               ; preds = %39
  %43 = load ptr, ptr %8, align 8
  call void @cf_ctx_free(ptr noundef %43)
  br label %44

44:                                               ; preds = %42, %39
  %45 = load i32, ptr %9, align 4
  %46 = icmp ne i32 %45, 0
  br i1 %46, label %47, label %48

47:                                               ; preds = %44
  br label %50

48:                                               ; preds = %44
  %49 = load ptr, ptr %7, align 8
  br label %50

50:                                               ; preds = %48, %47
  %51 = phi ptr [ null, %47 ], [ %49, %48 ]
  %52 = load ptr, ptr %4, align 8
  store ptr %51, ptr %52, align 8
  %53 = load i32, ptr %9, align 4
  ret i32 %53
}

; Function Attrs: nounwind uwtable
define dso_local i32 @Curl_cf_ssl_proxy_insert_after(ptr noundef %0, ptr noundef %1) #0 {
  %3 = alloca ptr, align 8
  %4 = alloca ptr, align 8
  %5 = alloca ptr, align 8
  %6 = alloca i32, align 4
  store ptr %0, ptr %3, align 8
  store ptr %1, ptr %4, align 8
  %7 = load ptr, ptr %4, align 8
  %8 = load ptr, ptr %3, align 8
  %9 = getelementptr inbounds %struct.Curl_cfilter, ptr %8, i32 0, i32 3
  %10 = load ptr, ptr %9, align 8
  %11 = call i32 @cf_ssl_proxy_create(ptr noundef %5, ptr noundef %7, ptr noundef %10)
  store i32 %11, ptr %6, align 4
  %12 = load i32, ptr %6, align 4
  %13 = icmp ne i32 %12, 0
  br i1 %13, label %17, label %14

14:                                               ; preds = %2
  %15 = load ptr, ptr %3, align 8
  %16 = load ptr, ptr %5, align 8
  call void @Curl_conn_cf_insert_after(ptr noundef %15, ptr noundef %16)
  br label %17

17:                                               ; preds = %14, %2
  %18 = load i32, ptr %6, align 4
  ret i32 %18
}