; Function Attrs: nounwind uwtable
define dso_local i32 @Curl_cf_ssl_proxy_insert_after(ptr noundef %0, ptr noundef readnone captures(none) %1) local_unnamed_addr #2 {
  %3 = alloca ptr, align 8
  %4 = getelementptr inbounds nuw i8, ptr %0, i64 24
  %5 = load ptr, ptr %4, align 8
  %6 = getelementptr i8, ptr %5, i64 236
  %.val = load i8, ptr %6, align 4
  %7 = getelementptr i8, ptr %5, i64 672
  %.val4 = load i32, ptr %7, align 8
  call void @llvm.lifetime.start.p0(i64 8, ptr nonnull %3)
  store ptr null, ptr %3, align 8
  %8 = load ptr, ptr @Curl_ccalloc, align 8
  %9 = tail call ptr %8(i64 noundef 1, i64 noundef 88) #18
  %.not.i.i = icmp eq ptr %9, null
  br i1 %.not.i.i, label %cf_ssl_proxy_create.exit.thread, label %10

10:                                               ; preds = %2
  %11 = icmp eq i8 %.val, 3
  %12 = and i32 %.val4, 33554432
  %.not.i = icmp eq i32 %12, 0
  %ALPN_SPEC_H2_H11.ALPN_SPEC_H11.i.i = select i1 %.not.i, ptr null, ptr @ALPN_SPEC_H11
  %.0.i.i = select i1 %11, ptr @ALPN_SPEC_H2_H11, ptr %ALPN_SPEC_H2_H11.ALPN_SPEC_H11.i.i
  %13 = getelementptr inbounds nuw i8, ptr %9, i64 40
  store ptr %.0.i.i, ptr %13, align 8
  %14 = load ptr, ptr @Curl_ccalloc, align 8
  %15 = load ptr, ptr @Curl_ssl, align 8
  %16 = getelementptr inbounds nuw i8, ptr %15, i64 24
  %17 = load i64, ptr %16, align 8
  %18 = tail call ptr %14(i64 noundef 1, i64 noundef %17) #18
  %19 = getelementptr inbounds nuw i8, ptr %9, i64 48
  store ptr %18, ptr %19, align 8
  %.not9.i.i = icmp eq ptr %18, null
  br i1 %.not9.i.i, label %20, label %22

20:                                               ; preds = %10
  %21 = load ptr, ptr @Curl_cfree, align 8
  tail call void %21(ptr noundef nonnull %9) #18
  br label %cf_ssl_proxy_create.exit.thread

22:                                               ; preds = %10
  %23 = call i32 @Curl_cf_create(ptr noundef nonnull %3, ptr noundef nonnull @Curl_cft_ssl_proxy, ptr noundef nonnull %9) #18
  %.not14.i = icmp eq i32 %23, 0
  br i1 %.not14.i, label %28, label %24

24:                                               ; preds = %22
  %25 = load ptr, ptr @Curl_cfree, align 8
  %26 = load ptr, ptr %19, align 8
  call void %25(ptr noundef %26) #18
  %27 = load ptr, ptr @Curl_cfree, align 8
  call void %27(ptr noundef nonnull %9) #18
  br label %cf_ssl_proxy_create.exit.thread

cf_ssl_proxy_create.exit.thread:                  ; preds = %24, %20, %2
  %.0121224.i.ph = phi i32 [ 27, %2 ], [ 27, %20 ], [ %23, %24 ]
  call void @llvm.lifetime.end.p0(i64 8, ptr nonnull %3)
  br label %30

28:                                               ; preds = %22
  %29 = load ptr, ptr %3, align 8
  call void @llvm.lifetime.end.p0(i64 8, ptr nonnull %3)
  call void @Curl_conn_cf_insert_after(ptr noundef nonnull %0, ptr noundef %29) #18
  br label %30

30:                                               ; preds = %cf_ssl_proxy_create.exit.thread, %28
  %.0121224.i7 = phi i32 [ %.0121224.i.ph, %cf_ssl_proxy_create.exit.thread ], [ 0, %28 ]
  ret i32 %.0121224.i7
}